; Function Attrs: nounwind uwtable
define range(i32 -1, 1) i32 @H5B2_depend(ptr noundef readonly captures(none) %0, ptr noundef %1) local_unnamed_addr #0 {
  %3 = load ptr, ptr %0, align 8, !tbaa !13
  %4 = load i8, ptr @H5B2_init_g, align 1, !tbaa !3, !range !7, !noundef !8
  %5 = trunc nuw i8 %4 to i1
  %6 = load i8, ptr @H5_libterm_g, align 1, !range !7
  %7 = trunc nuw i8 %6 to i1
  %8 = select i1 %5, i1 true, i1 %7
  br i1 %8, label %9, label %.thread, !prof !9

.thread:                                          ; preds = %2
  store i8 1, ptr @H5B2_init_g, align 1, !tbaa !3
  br label %12

9:                                                ; preds = %2
  %10 = xor i1 %7, true
  %11 = select i1 %5, i1 true, i1 %10
  br i1 %11, label %12, label %29, !prof !10

12:                                               ; preds = %.thread, %9
  %13 = getelementptr inbounds nuw i8, ptr %3, i64 408
  %14 = load ptr, ptr %13, align 8, !tbaa !72
  %15 = icmp eq ptr %14, null
  br i1 %15, label %16, label %29

16:                                               ; preds = %12
  %17 = getelementptr inbounds nuw i8, ptr %0, i64 8
  %18 = load ptr, ptr %17, align 8, !tbaa !18
  %19 = getelementptr inbounds nuw i8, ptr %3, i64 288
  store ptr %18, ptr %19, align 8, !tbaa !19
  %20 = getelementptr inbounds nuw i8, ptr %3, i64 400
  %21 = load ptr, ptr %20, align 8, !tbaa !73
  %22 = tail call i32 @H5AC_proxy_entry_add_child(ptr noundef %1, ptr noundef %18, ptr noundef %21) #7
  %23 = icmp slt i32 %22, 0
  br i1 %23, label %24, label %28

24:                                               ; preds = %16
  %25 = load i64, ptr @H5E_BTREE_g, align 8, !tbaa !11
  %26 = load i64, ptr @H5E_CANTSET_g, align 8, !tbaa !11
  %27 = tail call i32 (ptr, ptr, i32, i64, i64, ptr, ...) @H5E_printf_stack(ptr noundef nonnull @.str, ptr noundef nonnull @__func__.H5B2_depend, i32 noundef 1549, i64 noundef %25, i64 noundef %26, ptr noundef nonnull @.str.36) #7
  br label %29

28:                                               ; preds = %16
  store ptr %1, ptr %13, align 8, !tbaa !72
  br label %29

29:                                               ; preds = %24, %28, %12, %9
  %.0 = phi i32 [ -1, %24 ], [ 0, %28 ], [ 0, %12 ], [ 0, %9 ]
  ret i32 %.0
}